target datalayout = "e-m:e-p270:32:32-p271:32:32-p272:64:64-i64:64-i128:128-f80:128-n8:16:32:64-S128"
target triple = "x86_64-pc-linux-gnu"

%struct.rb_data_type_struct = type { ptr, %struct.anon, ptr, ptr, i64 }
%struct.anon = type { ptr, ptr, ptr, ptr, [1 x ptr] }

@id_call = internal global i64 0, align 8
@ossl_ssl_ex_ptr_idx = internal global i32 0, align 4
@eSSLError = internal global i64 0, align 8
@cSSLContext = internal global i64 0, align 8
@id_i_servername_cb = internal global i64 0, align 8
@id_i_context = internal global i64 0, align 8
@ossl_sslctx_type = internal constant %struct.rb_data_type_struct { ptr @.str.186, %struct.anon { ptr @ossl_sslctx_mark, ptr @ossl_sslctx_free, ptr null, ptr null, [1 x ptr] zeroinitializer }, ptr null, ptr null, i64 33 }, align 8
@rb_eArgError = external global i64, align 8
@.str.233 = private unnamed_addr constant [16 x i8] c"SSL_set_SSL_CTX\00", align 1
@.str.234 = private unnamed_addr constant [68 x i8] c"servername_cb must return an OpenSSL::SSL::SSLContext object or nil\00", align 1

; Function Attrs: inlinehint nounwind sspstrong willreturn memory(none) uwtable
define internal zeroext i1 @RB_NIL_P(i64 noundef %0) #9 {
  %2 = alloca i64, align 8
  store i64 %0, ptr %2, align 8, !tbaa !14
  %3 = load i64, ptr %2, align 8, !tbaa !14
  %4 = icmp eq i64 %3, 4
  ret i1 %4
}

; Function Attrs: nounwind sspstrong uwtable
define internal i64 @ossl_call_servername_cb(i64 noundef %0) #0 {
  %2 = alloca i64, align 8
  %3 = alloca i64, align 8
  %4 = alloca ptr, align 8
  %5 = alloca ptr, align 8
  %6 = alloca i32, align 4
  %7 = alloca i64, align 8
  %8 = alloca i64, align 8
  %9 = alloca i64, align 8
  %10 = alloca i64, align 8
  %11 = alloca i64, align 8
  %12 = alloca ptr, align 8
  store i64 %0, ptr %3, align 8, !tbaa !14
  call void @llvm.lifetime.start.p0(i64 8, ptr %4) #20
  %13 = load i64, ptr %3, align 8, !tbaa !14
  %14 = inttoptr i64 %13 to ptr
  store ptr %14, ptr %4, align 8, !tbaa !10
  call void @llvm.lifetime.start.p0(i64 8, ptr %5) #20
  %15 = load ptr, ptr %4, align 8, !tbaa !10
  %16 = call ptr @SSL_get_servername(ptr noundef %15, i32 noundef 0)
  store ptr %16, ptr %5, align 8, !tbaa !16
  %17 = load ptr, ptr %5, align 8, !tbaa !16
  %18 = icmp ne ptr %17, null
  br i1 %18, label %20, label %19

19:                                               ; preds = %1
  store i64 4, ptr %2, align 8
  store i32 1, ptr %6, align 4
  br label %68

20:                                               ; preds = %1
  call void @llvm.lifetime.start.p0(i64 8, ptr %7) #20
  %21 = load ptr, ptr %4, align 8, !tbaa !10
  %22 = load i32, ptr @ossl_ssl_ex_ptr_idx, align 4, !tbaa !12
  %23 = call ptr @SSL_get_ex_data(ptr noundef %21, i32 noundef %22)
  %24 = ptrtoint ptr %23 to i64
  store i64 %24, ptr %7, align 8, !tbaa !14
  call void @llvm.lifetime.start.p0(i64 8, ptr %8) #20
  %25 = load i64, ptr %7, align 8, !tbaa !14
  %26 = load i64, ptr @id_i_context, align 8, !tbaa !14
  %27 = call i64 @rb_attr_get(i64 noundef %25, i64 noundef %26)
  store i64 %27, ptr %8, align 8, !tbaa !14
  call void @llvm.lifetime.start.p0(i64 8, ptr %9) #20
  %28 = load i64, ptr %8, align 8, !tbaa !14
  %29 = load i64, ptr @id_i_servername_cb, align 8, !tbaa !14
  %30 = call i64 @rb_attr_get(i64 noundef %28, i64 noundef %29)
  store i64 %30, ptr %9, align 8, !tbaa !14
  call void @llvm.lifetime.start.p0(i64 8, ptr %10) #20
  %31 = load i64, ptr %7, align 8, !tbaa !14
  %32 = load ptr, ptr %5, align 8, !tbaa !16
  %33 = call i64 @rb_str_new_cstr(ptr noundef %32)
  %34 = call i64 @rb_assoc_new(i64 noundef %31, i64 noundef %33)
  store i64 %34, ptr %10, align 8, !tbaa !14
  call void @llvm.lifetime.start.p0(i64 8, ptr %11) #20
  %35 = load i64, ptr %9, align 8, !tbaa !14
  %36 = load i64, ptr @id_call, align 8, !tbaa !14
  %37 = call i64 @rb_funcallv(i64 noundef %35, i64 noundef %36, i32 noundef 1, ptr noundef %10)
  store i64 %37, ptr %11, align 8, !tbaa !14
  %38 = load i64, ptr %11, align 8, !tbaa !14
  %39 = load i64, ptr @cSSLContext, align 8, !tbaa !14
  %40 = call i64 @rb_obj_is_kind_of(i64 noundef %38, i64 noundef %39)
  %41 = icmp ne i64 %40, 0
  br i1 %41, label %42, label %61

42:                                               ; preds = %20
  call void @llvm.lifetime.start.p0(i64 8, ptr %12) #20
  %43 = load i64, ptr %11, align 8, !tbaa !14
  %44 = call i64 @ossl_sslctx_setup(i64 noundef %43)
  br label %45

45:                                               ; preds = %42
  %46 = load i64, ptr %11, align 8, !tbaa !14
  %47 = call ptr @rb_check_typeddata(i64 noundef %46, ptr noundef @ossl_sslctx_type)
  store ptr %47, ptr %12, align 8, !tbaa !18
  br label %48

48:                                               ; preds = %45
  br label %49

49:                                               ; preds = %48
  %50 = load ptr, ptr %4, align 8, !tbaa !10
  %51 = load ptr, ptr %12, align 8, !tbaa !18
  %52 = call ptr @SSL_set_SSL_CTX(ptr noundef %50, ptr noundef %51)
  %53 = icmp ne ptr %52, null
  br i1 %53, label %56, label %54

54:                                               ; preds = %49
  %55 = load i64, ptr @eSSLError, align 8, !tbaa !14
  call void (i64, ptr, ...) @ossl_raise(i64 noundef %55, ptr noundef @.str.233) #22
  unreachable

56:                                               ; preds = %49
  %57 = load i64, ptr %7, align 8, !tbaa !14
  %58 = load i64, ptr @id_i_context, align 8, !tbaa !14
  %59 = load i64, ptr %11, align 8, !tbaa !14
  %60 = call i64 @rb_ivar_set(i64 noundef %57, i64 noundef %58, i64 noundef %59)
  call void @llvm.lifetime.end.p0(i64 8, ptr %12) #20
  br label %67

61:                                               ; preds = %20
  %62 = load i64, ptr %11, align 8, !tbaa !14
  %63 = call zeroext i1 @RB_NIL_P(i64 noundef %62) #23
  br i1 %63, label %66, label %64

64:                                               ; preds = %61
  %65 = load i64, ptr @rb_eArgError, align 8, !tbaa !14
  call void (i64, ptr, ...) @ossl_raise(i64 noundef %65, ptr noundef @.str.234) #22
  unreachable

66:                                               ; preds = %61
  br label %67

67:                                               ; preds = %66, %56
  store i64 4, ptr %2, align 8
  store i32 1, ptr %6, align 4
  call void @llvm.lifetime.end.p0(i64 8, ptr %11) #20
  call void @llvm.lifetime.end.p0(i64 8, ptr %10) #20
  call void @llvm.lifetime.end.p0(i64 8, ptr %9) #20
  call void @llvm.lifetime.end.p0(i64 8, ptr %8) #20
  call void @llvm.lifetime.end.p0(i64 8, ptr %7) #20
  br label %68

68:                                               ; preds = %67, %19
  call void @llvm.lifetime.end.p0(i64 8, ptr %5) #20
  call void @llvm.lifetime.end.p0(i64 8, ptr %4) #20
  %69 = load i64, ptr %2, align 8
  ret i64 %69
}