; Function Attrs: nounwind sspstrong uwtable
define internal noundef i64 @ossl_call_servername_cb(i64 noundef %0) #0 {
  %2 = alloca i64, align 8
  %3 = inttoptr i64 %0 to ptr
  %4 = tail call ptr @SSL_get_servername(ptr noundef %3, i32 noundef 0) #9
  %.not = icmp eq ptr %4, null
  br i1 %.not, label %33, label %5

5:                                                ; preds = %1
  %6 = load i32, ptr @ossl_ssl_ex_ptr_idx, align 4, !tbaa !6
  %7 = tail call ptr @SSL_get_ex_data(ptr noundef %3, i32 noundef %6) #9
  %8 = ptrtoint ptr %7 to i64
  %9 = load i64, ptr @id_i_context, align 8, !tbaa !10
  %10 = tail call i64 @rb_attr_get(i64 noundef %8, i64 noundef %9) #9
  %11 = load i64, ptr @id_i_servername_cb, align 8, !tbaa !10
  %12 = tail call i64 @rb_attr_get(i64 noundef %10, i64 noundef %11) #9
  call void @llvm.lifetime.start.p0(i64 8, ptr nonnull %2) #9
  %13 = tail call i64 @rb_str_new_cstr(ptr noundef nonnull %4) #9
  %14 = tail call i64 @rb_assoc_new(i64 noundef %8, i64 noundef %13) #9
  store i64 %14, ptr %2, align 8, !tbaa !10
  %15 = load i64, ptr @id_call, align 8, !tbaa !10
  %16 = call i64 @rb_funcallv(i64 noundef %12, i64 noundef %15, i32 noundef 1, ptr noundef nonnull %2) #9
  %17 = load i64, ptr @cSSLContext, align 8, !tbaa !10
  %18 = call i64 @rb_obj_is_kind_of(i64 noundef %16, i64 noundef %17) #9
  %.not17 = icmp eq i64 %18, 0
  br i1 %.not17, label %28, label %19

19:                                               ; preds = %5
  %20 = call i64 @ossl_sslctx_setup(i64 noundef %16)
  %21 = call ptr @rb_check_typeddata(i64 noundef %16, ptr noundef nonnull @ossl_sslctx_type) #9
  %22 = call ptr @SSL_set_SSL_CTX(ptr noundef %3, ptr noundef %21) #9
  %.not18 = icmp eq ptr %22, null
  br i1 %.not18, label %23, label %25

23:                                               ; preds = %19
  %24 = load i64, ptr @eSSLError, align 8, !tbaa !10
  call void (i64, ptr, ...) @ossl_raise(i64 noundef %24, ptr noundef nonnull @.str.233) #10
  unreachable

25:                                               ; preds = %19
  %26 = load i64, ptr @id_i_context, align 8, !tbaa !10
  %27 = call i64 @rb_ivar_set(i64 noundef %8, i64 noundef %26, i64 noundef %16) #9
  br label %32

28:                                               ; preds = %5
  %29 = icmp eq i64 %16, 4
  br i1 %29, label %32, label %30

30:                                               ; preds = %28
  %31 = load i64, ptr @rb_eArgError, align 8, !tbaa !10
  call void (i64, ptr, ...) @ossl_raise(i64 noundef %31, ptr noundef nonnull @.str.234) #10
  unreachable

32:                                               ; preds = %28, %25
  call void @llvm.lifetime.end.p0(i64 8, ptr nonnull %2) #9
  br label %33

33:                                               ; preds = %1, %32
  ret i64 4
}